; Function Attrs: mustprogress uwtable
define hidden void @_ZN6google8protobuf8compiler6csharp18FieldGeneratorBase10oneof_nameB5cxx11Ev(ptr noalias sret(%"class.std::__cxx11::basic_string") align 8 %agg.result, ptr nocapture noundef nonnull readonly align 8 dereferenceable(64) %this) local_unnamed_addr #3 align 2 {
entry:
  %descriptor_ = getelementptr inbounds i8, ptr %this, i64 16
  %0 = load ptr, ptr %descriptor_, align 8
  %is_oneof_.i = getelementptr inbounds i8, ptr %0, i64 1
  %bf.load.i = load i8, ptr %is_oneof_.i, align 1
  %1 = and i8 %bf.load.i, 16
  %bf.cast.not.i = icmp eq i8 %1, 0
  %scope_.i = getelementptr inbounds i8, ptr %0, i64 40
  %2 = load ptr, ptr %scope_.i, align 8
  %cond.i = select i1 %bf.cast.not.i, ptr null, ptr %2
  %all_names_.i = getelementptr inbounds i8, ptr %cond.i, i64 8
  %3 = load ptr, ptr %all_names_.i, align 8
  %call3 = tail call { i64, ptr } @_ZNKSt7__cxx1112basic_stringIcSt11char_traitsIcESaIcEEcvSt17basic_string_viewIcS2_EEv(ptr noundef nonnull align 8 dereferenceable(32) %3) #26
  %4 = extractvalue { i64, ptr } %call3, 0
  %5 = extractvalue { i64, ptr } %call3, 1
  tail call void @_ZN6google8protobuf8compiler6csharp22UnderscoresToCamelCaseB5cxx11ESt17basic_string_viewIcSt11char_traitsIcEEbb(ptr sret(%"class.std::__cxx11::basic_string") align 8 %agg.result, i64 %4, ptr %5, i1 noundef zeroext false, i1 noundef zeroext false)
  ret void
}